; Function Attrs: mustprogress uwtable
define void @_ZN7rocksdb14MockFileSystem17NormalizeMockPathERKNSt7__cxx1112basic_stringIcSt11char_traitsIcESaIcEEE(ptr dead_on_unwind noalias writable sret(%"class.std::__cxx11::basic_string") align 8 %0, ptr noundef nonnull readnone align 8 captures(none) dereferenceable(145) %1, ptr noundef nonnull align 8 dereferenceable(32) %2) local_unnamed_addr #1 align 2 personality ptr @__gxx_personality_v0 {
  tail call void @_ZN7rocksdb13NormalizePathERKNSt7__cxx1112basic_stringIcSt11char_traitsIcESaIcEEE(ptr dead_on_unwind writable sret(%"class.std::__cxx11::basic_string") align 8 %0, ptr noundef nonnull align 8 dereferenceable(32) %2)
  %4 = getelementptr inbounds nuw i8, ptr %0, i64 8
  %5 = load i64, ptr %4, align 8, !tbaa !31
  %6 = load ptr, ptr %0, align 8, !tbaa !26
  %7 = getelementptr i8, ptr %6, i64 %5
  %8 = getelementptr i8, ptr %7, i64 -1
  %9 = load i8, ptr %8, align 1, !tbaa !32
  %10 = icmp eq i8 %9, 47
  %11 = icmp ugt i64 %5, 1
  %or.cond = and i1 %11, %10
  br i1 %or.cond, label %12, label %_ZNSt7__cxx1112basic_stringIcSt11char_traitsIcESaIcEE8pop_backEv.exit

12:                                               ; preds = %3
  %13 = add i64 %5, -1
  invoke void @_ZNSt7__cxx1112basic_stringIcSt11char_traitsIcESaIcEE8_M_eraseEmm(ptr noundef nonnull align 8 dereferenceable(32) %0, i64 noundef %13, i64 noundef 1)
          to label %_ZNSt7__cxx1112basic_stringIcSt11char_traitsIcESaIcEE8pop_backEv.exit unwind label %14

14:                                               ; preds = %12
  %15 = landingpad { ptr, i32 }
          catch ptr null
  %16 = extractvalue { ptr, i32 } %15, 0
  tail call void @__clang_call_terminate(ptr %16) #31
  unreachable

_ZNSt7__cxx1112basic_stringIcSt11char_traitsIcESaIcEE8pop_backEv.exit: ; preds = %12, %3
  ret void
}